target datalayout = "e-m:e-p270:32:32-p271:32:32-p272:64:64-i64:64-i128:128-f80:128-n8:16:32:64-S128"
target triple = "x86_64-pc-linux-gnu"

%"class.lean::object_ref" = type { ptr }
%struct.lean_object = type { i32, i32 }
%struct.lean_ctor_object = type { %struct.lean_object, [0 x ptr] }

; Function Attrs: inlinehint mustprogress nounwind uwtable
define internal noundef zeroext i8 @_ZL12lean_ptr_tagP11lean_object(ptr noundef %0) #8 {
  %2 = alloca ptr, align 8
  store ptr %0, ptr %2, align 8, !tbaa !40
  %3 = load ptr, ptr %2, align 8, !tbaa !40
  %4 = getelementptr inbounds nuw %struct.lean_object, ptr %3, i32 0, i32 1
  %5 = load i32, ptr %4, align 4
  %6 = lshr i32 %5, 24
  %7 = trunc i32 %6 to i8
  ret i8 %7
}

; Function Attrs: inlinehint mustprogress nounwind uwtable
define internal noundef ptr @_ZL12lean_to_ctorP11lean_object(ptr noundef %0) #8 {
  %2 = alloca ptr, align 8
  store ptr %0, ptr %2, align 8, !tbaa !40
  %3 = load ptr, ptr %2, align 8, !tbaa !40
  ret ptr %3
}

; Function Attrs: inlinehint mustprogress uwtable
define linkonce_odr hidden noundef i32 @_ZN4lean9cnstr_tagEP11lean_object(ptr noundef %0) #3 comdat {
  %2 = alloca ptr, align 8
  store ptr %0, ptr %2, align 8, !tbaa !40
  %3 = load ptr, ptr %2, align 8, !tbaa !40
  %4 = call noundef zeroext i8 @_ZL12lean_ptr_tagP11lean_object(ptr noundef %3)
  %5 = zext i8 %4 to i32
  ret i32 %5
}

; Function Attrs: inlinehint mustprogress uwtable
define linkonce_odr hidden noundef nonnull align 8 dereferenceable(8) ptr @_ZN4lean13cnstr_get_refEP11lean_objectj(ptr noundef %0, i32 noundef %1) #3 comdat {
  %3 = alloca ptr, align 8
  %4 = alloca i32, align 4
  store ptr %0, ptr %3, align 8, !tbaa !40
  store i32 %1, ptr %4, align 4, !tbaa !79
  %5 = load ptr, ptr %3, align 8, !tbaa !40
  %6 = call noundef ptr @_ZL12lean_to_ctorP11lean_object(ptr noundef %5)
  %7 = getelementptr inbounds nuw %struct.lean_ctor_object, ptr %6, i32 0, i32 1
  %8 = getelementptr inbounds [0 x ptr], ptr %7, i64 0, i64 0
  %9 = load i32, ptr %4, align 4, !tbaa !79
  %10 = zext i32 %9 to i64
  %11 = getelementptr inbounds nuw %"class.lean::object_ref", ptr %8, i64 %10
  ret ptr %11
}

; Function Attrs: mustprogress uwtable
define linkonce_odr hidden noundef i32 @_ZN4lean4expr4kindEP11lean_object(ptr noundef %0) #0 comdat align 2 {
  %2 = alloca ptr, align 8
  store ptr %0, ptr %2, align 8, !tbaa !40
  %3 = load ptr, ptr %2, align 8, !tbaa !40
  %4 = call noundef i32 @_ZN4lean9cnstr_tagEP11lean_object(ptr noundef %3)
  ret i32 %4
}

; Function Attrs: mustprogress uwtable
define linkonce_odr hidden noundef zeroext i1 @_ZN4lean4name2eqEP11lean_objectS2_(ptr noundef %0, ptr noundef %1) #0 comdat align 2 {
  %3 = alloca ptr, align 8
  %4 = alloca ptr, align 8
  store ptr %0, ptr %3, align 8, !tbaa !40
  store ptr %1, ptr %4, align 8, !tbaa !40
  %5 = load ptr, ptr %3, align 8, !tbaa !40
  %6 = load ptr, ptr %4, align 8, !tbaa !40
  %7 = call zeroext i8 @lean_name_eq(ptr noundef %5, ptr noundef %6)
  %8 = icmp ne i8 %7, 0
  ret i1 %8
}

; Function Attrs: mustprogress nounwind uwtable
define linkonce_odr hidden noundef ptr @_ZNK4lean10object_ref3rawEv(ptr noundef nonnull align 8 dereferenceable(8) %0) #5 comdat align 2 {
  %2 = alloca ptr, align 8
  store ptr %0, ptr %2, align 8, !tbaa !36
  %3 = load ptr, ptr %2, align 8
  %4 = getelementptr inbounds nuw %"class.lean::object_ref", ptr %3, i32 0, i32 0
  %5 = load ptr, ptr %4, align 8, !tbaa !38
  ret ptr %5
}

; Function Attrs: inlinehint mustprogress uwtable
define linkonce_odr hidden noundef nonnull align 8 dereferenceable(8) ptr @_ZN4lean13cnstr_get_refERKNS_10object_refEj(ptr noundef nonnull align 8 dereferenceable(8) %0, i32 noundef %1) #3 comdat {
  %3 = alloca ptr, align 8
  %4 = alloca i32, align 4
  store ptr %0, ptr %3, align 8, !tbaa !36
  store i32 %1, ptr %4, align 4, !tbaa !79
  %5 = load ptr, ptr %3, align 8, !tbaa !36
  %6 = call noundef ptr @_ZNK4lean10object_ref3rawEv(ptr noundef nonnull align 8 dereferenceable(8) %5)
  %7 = load i32, ptr %4, align 4, !tbaa !79
  %8 = call noundef nonnull align 8 dereferenceable(8) ptr @_ZN4lean13cnstr_get_refEP11lean_objectj(ptr noundef %6, i32 noundef %7)
  ret ptr %8
}

; Function Attrs: mustprogress uwtable
define linkonce_odr hidden noundef i32 @_ZNK4lean4expr4kindEv(ptr noundef nonnull align 8 dereferenceable(8) %0) #0 comdat align 2 {
  %2 = alloca ptr, align 8
  store ptr %0, ptr %2, align 8, !tbaa !34
  %3 = load ptr, ptr %2, align 8
  %4 = call noundef ptr @_ZNK4lean10object_ref3rawEv(ptr noundef nonnull align 8 dereferenceable(8) %3)
  %5 = call noundef i32 @_ZN4lean4expr4kindEP11lean_object(ptr noundef %4)
  ret i32 %5
}

; Function Attrs: mustprogress uwtable
define linkonce_odr hidden noundef zeroext i1 @_ZN4leaneqERKNS_4nameES2_(ptr noundef nonnull align 8 dereferenceable(8) %0, ptr noundef nonnull align 8 dereferenceable(8) %1) #0 comdat {
  %3 = alloca ptr, align 8
  %4 = alloca ptr, align 8
  store ptr %0, ptr %3, align 8, !tbaa !8
  store ptr %1, ptr %4, align 8, !tbaa !8
  %5 = load ptr, ptr %3, align 8, !tbaa !8
  %6 = call noundef ptr @_ZNK4lean10object_ref3rawEv(ptr noundef nonnull align 8 dereferenceable(8) %5)
  %7 = load ptr, ptr %4, align 8, !tbaa !8
  %8 = call noundef ptr @_ZNK4lean10object_ref3rawEv(ptr noundef nonnull align 8 dereferenceable(8) %7)
  %9 = call noundef zeroext i1 @_ZN4lean4name2eqEP11lean_objectS2_(ptr noundef %6, ptr noundef %8)
  ret i1 %9
}

; Function Attrs: inlinehint mustprogress uwtable
define linkonce_odr hidden noundef nonnull align 8 dereferenceable(8) ptr @_ZN4lean10const_nameERKNS_4exprE(ptr noundef nonnull align 8 dereferenceable(8) %0) #3 comdat {
  %2 = alloca ptr, align 8
  store ptr %0, ptr %2, align 8, !tbaa !34
  %3 = load ptr, ptr %2, align 8, !tbaa !34
  %4 = call noundef nonnull align 8 dereferenceable(8) ptr @_ZN4lean13cnstr_get_refERKNS_10object_refEj(ptr noundef nonnull align 8 dereferenceable(8) %3, i32 noundef 0)
  ret ptr %4
}

; Function Attrs: inlinehint mustprogress uwtable
define linkonce_odr hidden noundef zeroext i1 @_ZN4lean8is_constERKNS_4exprE(ptr noundef nonnull align 8 dereferenceable(8) %0) #3 comdat {
  %2 = alloca ptr, align 8
  store ptr %0, ptr %2, align 8, !tbaa !34
  %3 = load ptr, ptr %2, align 8, !tbaa !34
  %4 = call noundef i32 @_ZNK4lean4expr4kindEv(ptr noundef nonnull align 8 dereferenceable(8) %3)
  %5 = icmp eq i32 %4, 4
  ret i1 %5
}

; Function Attrs: inlinehint mustprogress uwtable
define linkonce_odr hidden noundef zeroext i1 @_ZN4lean8is_constERKNS_4exprERKNS_4nameE(ptr noundef nonnull align 8 dereferenceable(8) %0, ptr noundef nonnull align 8 dereferenceable(8) %1) #3 comdat {
  %3 = alloca ptr, align 8
  %4 = alloca ptr, align 8
  store ptr %0, ptr %3, align 8, !tbaa !34
  store ptr %1, ptr %4, align 8, !tbaa !8
  %5 = load ptr, ptr %3, align 8, !tbaa !34
  %6 = call noundef zeroext i1 @_ZN4lean8is_constERKNS_4exprE(ptr noundef nonnull align 8 dereferenceable(8) %5)
  br i1 %6, label %7, label %12

7:                                                ; preds = %2
  %8 = load ptr, ptr %3, align 8, !tbaa !34
  %9 = call noundef nonnull align 8 dereferenceable(8) ptr @_ZN4lean10const_nameERKNS_4exprE(ptr noundef nonnull align 8 dereferenceable(8) %8)
  %10 = load ptr, ptr %4, align 8, !tbaa !8
  %11 = call noundef zeroext i1 @_ZN4leaneqERKNS_4nameES2_(ptr noundef nonnull align 8 dereferenceable(8) %9, ptr noundef nonnull align 8 dereferenceable(8) %10)
  br label %12

12:                                               ; preds = %7, %2
  %13 = phi i1 [ false, %2 ], [ %11, %7 ]
  ret i1 %13
}

; Function Attrs: inlinehint mustprogress uwtable
define linkonce_odr hidden noundef zeroext i1 @_ZN4lean11is_constantERKNS_4exprERKNS_4nameE(ptr noundef nonnull align 8 dereferenceable(8) %0, ptr noundef nonnull align 8 dereferenceable(8) %1) #3 comdat {
  %3 = alloca ptr, align 8
  %4 = alloca ptr, align 8
  store ptr %0, ptr %3, align 8, !tbaa !34
  store ptr %1, ptr %4, align 8, !tbaa !8
  %5 = load ptr, ptr %3, align 8, !tbaa !34
  %6 = load ptr, ptr %4, align 8, !tbaa !8
  %7 = call noundef zeroext i1 @_ZN4lean8is_constERKNS_4exprERKNS_4nameE(ptr noundef nonnull align 8 dereferenceable(8) %5, ptr noundef nonnull align 8 dereferenceable(8) %6)
  ret i1 %7
}

; Function Attrs: mustprogress uwtable
define hidden noundef zeroext i1 @_ZN4lean17is_uint32_or_unitERKNS_4exprE(ptr noundef nonnull align 8 dereferenceable(8) %0) #0 {
  %2 = alloca ptr, align 8
  store ptr %0, ptr %2, align 8, !tbaa !34
  %3 = load ptr, ptr %2, align 8, !tbaa !34
  %4 = call noundef nonnull align 8 dereferenceable(8) ptr @_ZN4lean15get_uint32_nameEv()
  %5 = call noundef zeroext i1 @_ZN4lean11is_constantERKNS_4exprERKNS_4nameE(ptr noundef nonnull align 8 dereferenceable(8) %3, ptr noundef nonnull align 8 dereferenceable(8) %4)
  br i1 %5, label %14, label %6

6:                                                ; preds = %1
  %7 = load ptr, ptr %2, align 8, !tbaa !34
  %8 = call noundef nonnull align 8 dereferenceable(8) ptr @_ZN4lean13get_unit_nameEv()
  %9 = call noundef zeroext i1 @_ZN4lean11is_constantERKNS_4exprERKNS_4nameE(ptr noundef nonnull align 8 dereferenceable(8) %7, ptr noundef nonnull align 8 dereferenceable(8) %8)
  br i1 %9, label %14, label %10

10:                                               ; preds = %6
  %11 = load ptr, ptr %2, align 8, !tbaa !34
  %12 = call noundef nonnull align 8 dereferenceable(8) ptr @_ZN4lean14get_punit_nameEv()
  %13 = call noundef zeroext i1 @_ZN4lean11is_constantERKNS_4exprERKNS_4nameE(ptr noundef nonnull align 8 dereferenceable(8) %11, ptr noundef nonnull align 8 dereferenceable(8) %12)
  br label %14

14:                                               ; preds = %10, %6, %1
  %15 = phi i1 [ true, %6 ], [ true, %1 ], [ %13, %10 ]
  ret i1 %15
}