; Function Attrs: mustprogress uwtable
define hidden noundef zeroext i1 @_ZN4lean17is_uint32_or_unitERKNS_4exprE(ptr noundef nonnull readonly align 8 captures(none) dereferenceable(8) %0) local_unnamed_addr #0 {
  %2 = tail call noundef nonnull align 8 dereferenceable(8) ptr @_ZN4lean15get_uint32_nameEv()
  %3 = load ptr, ptr %0, align 8, !tbaa !13
  %4 = getelementptr i8, ptr %3, i64 4
  %.val.i.i.i.i.i.i = load i32, ptr %4, align 4
  %.mask.i.i.i = and i32 %.val.i.i.i.i.i.i, -16777216
  %5 = icmp eq i32 %.mask.i.i.i, 67108864
  br i1 %5, label %_ZN4lean11is_constantERKNS_4exprERKNS_4nameE.exit, label %_ZN4lean11is_constantERKNS_4exprERKNS_4nameE.exit.thread

_ZN4lean11is_constantERKNS_4exprERKNS_4nameE.exit: ; preds = %1
  %6 = getelementptr inbounds nuw i8, ptr %3, i64 8
  %7 = load ptr, ptr %6, align 8, !tbaa !13
  %8 = load ptr, ptr %2, align 8, !tbaa !13
  %9 = tail call zeroext i8 @lean_name_eq(ptr noundef %7, ptr noundef %8)
  %.not = icmp eq i8 %9, 0
  br i1 %.not, label %_ZN4lean11is_constantERKNS_4exprERKNS_4nameE.exit.thread, label %_ZN4lean11is_constantERKNS_4exprERKNS_4nameE.exit8

_ZN4lean11is_constantERKNS_4exprERKNS_4nameE.exit.thread: ; preds = %1, %_ZN4lean11is_constantERKNS_4exprERKNS_4nameE.exit
  %10 = tail call noundef nonnull align 8 dereferenceable(8) ptr @_ZN4lean13get_unit_nameEv()
  %11 = load ptr, ptr %0, align 8, !tbaa !13
  %12 = getelementptr i8, ptr %11, i64 4
  %.val.i.i.i.i.i.i3 = load i32, ptr %12, align 4
  %.mask.i.i.i4 = and i32 %.val.i.i.i.i.i.i3, -16777216
  %13 = icmp eq i32 %.mask.i.i.i4, 67108864
  br i1 %13, label %_ZN4lean11is_constantERKNS_4exprERKNS_4nameE.exit5, label %_ZN4lean11is_constantERKNS_4exprERKNS_4nameE.exit5.thread

_ZN4lean11is_constantERKNS_4exprERKNS_4nameE.exit5: ; preds = %_ZN4lean11is_constantERKNS_4exprERKNS_4nameE.exit.thread
  %14 = getelementptr inbounds nuw i8, ptr %11, i64 8
  %15 = load ptr, ptr %14, align 8, !tbaa !13
  %16 = load ptr, ptr %10, align 8, !tbaa !13
  %17 = tail call zeroext i8 @lean_name_eq(ptr noundef %15, ptr noundef %16)
  %.not9 = icmp eq i8 %17, 0
  br i1 %.not9, label %_ZN4lean11is_constantERKNS_4exprERKNS_4nameE.exit5.thread, label %_ZN4lean11is_constantERKNS_4exprERKNS_4nameE.exit8

_ZN4lean11is_constantERKNS_4exprERKNS_4nameE.exit5.thread: ; preds = %_ZN4lean11is_constantERKNS_4exprERKNS_4nameE.exit.thread, %_ZN4lean11is_constantERKNS_4exprERKNS_4nameE.exit5
  %18 = tail call noundef nonnull align 8 dereferenceable(8) ptr @_ZN4lean14get_punit_nameEv()
  %19 = load ptr, ptr %0, align 8, !tbaa !13
  %20 = getelementptr i8, ptr %19, i64 4
  %.val.i.i.i.i.i.i6 = load i32, ptr %20, align 4
  %.mask.i.i.i7 = and i32 %.val.i.i.i.i.i.i6, -16777216
  %21 = icmp eq i32 %.mask.i.i.i7, 67108864
  br i1 %21, label %22, label %_ZN4lean11is_constantERKNS_4exprERKNS_4nameE.exit8

22:                                               ; preds = %_ZN4lean11is_constantERKNS_4exprERKNS_4nameE.exit5.thread
  %23 = getelementptr inbounds nuw i8, ptr %19, i64 8
  %24 = load ptr, ptr %23, align 8, !tbaa !13
  %25 = load ptr, ptr %18, align 8, !tbaa !13
  %26 = tail call zeroext i8 @lean_name_eq(ptr noundef %24, ptr noundef %25)
  %27 = icmp ne i8 %26, 0
  br label %_ZN4lean11is_constantERKNS_4exprERKNS_4nameE.exit8

_ZN4lean11is_constantERKNS_4exprERKNS_4nameE.exit8: ; preds = %22, %_ZN4lean11is_constantERKNS_4exprERKNS_4nameE.exit5.thread, %_ZN4lean11is_constantERKNS_4exprERKNS_4nameE.exit5, %_ZN4lean11is_constantERKNS_4exprERKNS_4nameE.exit
  %28 = phi i1 [ true, %_ZN4lean11is_constantERKNS_4exprERKNS_4nameE.exit5 ], [ true, %_ZN4lean11is_constantERKNS_4exprERKNS_4nameE.exit ], [ false, %_ZN4lean11is_constantERKNS_4exprERKNS_4nameE.exit5.thread ], [ %27, %22 ]
  ret i1 %28
}